; Function Attrs: mustprogress nounwind uwtable
define hidden void @_ZN4goalD2Ev(ptr noundef nonnull align 8 captures(address) dereferenceable(124) initializes((80, 84), (96, 100), (112, 116)) %0) unnamed_addr #6 align 2 personality ptr @__gxx_personality_v0 {
  invoke void @_ZN4goal10reset_coreEv(ptr noundef nonnull align 8 dereferenceable(124) %0)
          to label %2 unwind label %51

2:                                                ; preds = %1
  %3 = getelementptr inbounds nuw i8, ptr %0, i64 40
  %4 = load ptr, ptr %3, align 8, !tbaa !104
  %5 = getelementptr inbounds nuw i8, ptr %0, i64 56
  %6 = icmp eq ptr %4, %5
  br i1 %6, label %_ZNKSt7__cxx1112basic_stringIcSt11char_traitsIcESaIcEE11_M_is_localEv.exit.thread.i.i, label %_ZNKSt7__cxx1112basic_stringIcSt11char_traitsIcESaIcEE11_M_is_localEv.exit.i.i

_ZNKSt7__cxx1112basic_stringIcSt11char_traitsIcESaIcEE11_M_is_localEv.exit.thread.i.i: ; preds = %2
  %7 = getelementptr inbounds nuw i8, ptr %0, i64 48
  %8 = load i64, ptr %7, align 8, !tbaa !11
  %9 = icmp ult i64 %8, 16
  tail call void @llvm.assume(i1 %9)
  br label %_ZNSt7__cxx1112basic_stringIcSt11char_traitsIcESaIcEED2Ev.exit

_ZNKSt7__cxx1112basic_stringIcSt11char_traitsIcESaIcEE11_M_is_localEv.exit.i.i: ; preds = %2
  %10 = load i64, ptr %5, align 8, !tbaa !14
  %11 = add i64 %10, 1
  tail call void @_ZdlPvm(ptr noundef %4, i64 noundef %11) #27
  br label %_ZNSt7__cxx1112basic_stringIcSt11char_traitsIcESaIcEED2Ev.exit

_ZNSt7__cxx1112basic_stringIcSt11char_traitsIcESaIcEED2Ev.exit: ; preds = %_ZNKSt7__cxx1112basic_stringIcSt11char_traitsIcESaIcEE11_M_is_localEv.exit.thread.i.i, %_ZNKSt7__cxx1112basic_stringIcSt11char_traitsIcESaIcEE11_M_is_localEv.exit.i.i
  %12 = getelementptr inbounds nuw i8, ptr %0, i64 24
  %13 = load ptr, ptr %12, align 8, !tbaa !89
  %.not.i.i = icmp eq ptr %13, null
  br i1 %.not.i.i, label %_ZN3refI20dependency_converterED2Ev.exit, label %14

14:                                               ; preds = %_ZNSt7__cxx1112basic_stringIcSt11char_traitsIcESaIcEED2Ev.exit
  %15 = getelementptr inbounds nuw i8, ptr %13, i64 8
  %16 = load i32, ptr %15, align 8, !tbaa !92
  %17 = add i32 %16, -1
  store i32 %17, ptr %15, align 8, !tbaa !92
  %18 = icmp eq i32 %17, 0
  br i1 %18, label %19, label %_ZN3refI20dependency_converterED2Ev.exit

19:                                               ; preds = %14
  %20 = load ptr, ptr %13, align 8, !tbaa !94
  %21 = load ptr, ptr %20, align 8
  tail call void %21(ptr noundef nonnull align 8 dereferenceable(12) %13) #25
  invoke void @_ZN6memory10deallocateEPv(ptr noundef nonnull align 8 dereferenceable(12) %13)
          to label %_ZN3refI20dependency_converterED2Ev.exit unwind label %22

22:                                               ; preds = %19
  %23 = landingpad { ptr, i32 }
          catch ptr null
  %24 = extractvalue { ptr, i32 } %23, 0
  tail call void @__clang_call_terminate(ptr %24) #26
  unreachable

_ZN3refI20dependency_converterED2Ev.exit:         ; preds = %_ZNSt7__cxx1112basic_stringIcSt11char_traitsIcESaIcEED2Ev.exit, %14, %19
  %25 = getelementptr inbounds nuw i8, ptr %0, i64 16
  %26 = load ptr, ptr %25, align 8, !tbaa !96
  %.not.i.i1 = icmp eq ptr %26, null
  br i1 %.not.i.i1, label %_ZN3refI15proof_converterED2Ev.exit, label %27

27:                                               ; preds = %_ZN3refI20dependency_converterED2Ev.exit
  %28 = getelementptr inbounds nuw i8, ptr %26, i64 8
  %29 = load i32, ptr %28, align 8, !tbaa !92
  %30 = add i32 %29, -1
  store i32 %30, ptr %28, align 8, !tbaa !92
  %31 = icmp eq i32 %30, 0
  br i1 %31, label %32, label %_ZN3refI15proof_converterED2Ev.exit

32:                                               ; preds = %27
  %33 = load ptr, ptr %26, align 8, !tbaa !94
  %34 = load ptr, ptr %33, align 8
  tail call void %34(ptr noundef nonnull align 8 dereferenceable(12) %26) #25
  invoke void @_ZN6memory10deallocateEPv(ptr noundef nonnull align 8 dereferenceable(12) %26)
          to label %_ZN3refI15proof_converterED2Ev.exit unwind label %35

35:                                               ; preds = %32
  %36 = landingpad { ptr, i32 }
          catch ptr null
  %37 = extractvalue { ptr, i32 } %36, 0
  tail call void @__clang_call_terminate(ptr %37) #26
  unreachable

_ZN3refI15proof_converterED2Ev.exit:              ; preds = %_ZN3refI20dependency_converterED2Ev.exit, %27, %32
  %38 = getelementptr inbounds nuw i8, ptr %0, i64 8
  %39 = load ptr, ptr %38, align 8, !tbaa !99
  %.not.i.i2 = icmp eq ptr %39, null
  br i1 %.not.i.i2, label %_ZN3refI15model_converterED2Ev.exit, label %40

40:                                               ; preds = %_ZN3refI15proof_converterED2Ev.exit
  %41 = getelementptr inbounds nuw i8, ptr %39, i64 8
  %42 = load i32, ptr %41, align 8, !tbaa !92
  %43 = add i32 %42, -1
  store i32 %43, ptr %41, align 8, !tbaa !92
  %44 = icmp eq i32 %43, 0
  br i1 %44, label %45, label %_ZN3refI15model_converterED2Ev.exit

45:                                               ; preds = %40
  %46 = load ptr, ptr %39, align 8, !tbaa !94
  %47 = load ptr, ptr %46, align 8
  tail call void %47(ptr noundef nonnull align 8 dereferenceable(12) %39) #25
  invoke void @_ZN6memory10deallocateEPv(ptr noundef nonnull align 8 dereferenceable(12) %39)
          to label %_ZN3refI15model_converterED2Ev.exit unwind label %48

48:                                               ; preds = %45
  %49 = landingpad { ptr, i32 }
          catch ptr null
  %50 = extractvalue { ptr, i32 } %49, 0
  tail call void @__clang_call_terminate(ptr %50) #26
  unreachable

_ZN3refI15model_converterED2Ev.exit:              ; preds = %_ZN3refI15proof_converterED2Ev.exit, %40, %45
  ret void

51:                                               ; preds = %1
  %52 = landingpad { ptr, i32 }
          catch ptr null
  %53 = extractvalue { ptr, i32 } %52, 0
  tail call void @__clang_call_terminate(ptr %53) #26
  unreachable
}